; Function Attrs: mustprogress uwtable
define void @_ZN7rocksdb4test14CorruptKeyTypeEPNS_11InternalKeyE(ptr noundef %0) local_unnamed_addr #7 personality ptr @__gxx_personality_v0 {
  %2 = alloca %"class.std::__cxx11::basic_string", align 8
  %3 = alloca %"class.rocksdb::Slice", align 8
  call void @llvm.lifetime.start.p0(i64 32, ptr nonnull %2) #34
  call void @llvm.lifetime.start.p0(i64 16, ptr nonnull %3) #34
  %4 = load ptr, ptr %0, align 8, !tbaa !11
  %5 = getelementptr inbounds nuw i8, ptr %0, i64 8
  %6 = load i64, ptr %5, align 8, !tbaa !16
  store ptr %4, ptr %3, align 8
  %7 = getelementptr inbounds nuw i8, ptr %3, i64 8
  store i64 %6, ptr %7, align 8
  call void @_ZNK7rocksdb5Slice8ToStringB5cxx11Eb(ptr dead_on_unwind nonnull writable sret(%"class.std::__cxx11::basic_string") align 8 %2, ptr noundef nonnull align 8 dereferenceable(16) %3, i1 noundef zeroext false)
  call void @llvm.lifetime.end.p0(i64 16, ptr nonnull %3) #34
  %8 = getelementptr inbounds nuw i8, ptr %2, i64 8
  %9 = load i64, ptr %8, align 8, !tbaa !16
  %10 = load ptr, ptr %2, align 8, !tbaa !11
  %11 = getelementptr i8, ptr %10, i64 %9
  %12 = getelementptr i8, ptr %11, i64 -8
  store i8 3, ptr %12, align 1, !tbaa !17
  %13 = load ptr, ptr %2, align 8, !tbaa !11
  %14 = load i64, ptr %8, align 8, !tbaa !16
  %15 = load i64, ptr %5, align 8, !tbaa !16
  %16 = invoke noundef nonnull align 8 dereferenceable(32) ptr @_ZNSt7__cxx1112basic_stringIcSt11char_traitsIcESaIcEE10_M_replaceEmmPKcm(ptr noundef nonnull align 8 dereferenceable(32) %0, i64 noundef 0, i64 noundef %15, ptr noundef %13, i64 noundef %14)
          to label %_ZN7rocksdb11InternalKey10DecodeFromERKNS_5SliceE.exit unwind label %24

_ZN7rocksdb11InternalKey10DecodeFromERKNS_5SliceE.exit: ; preds = %1
  %17 = load ptr, ptr %2, align 8, !tbaa !11
  %18 = getelementptr inbounds nuw i8, ptr %2, i64 16
  %19 = icmp eq ptr %17, %18
  br i1 %19, label %_ZNKSt7__cxx1112basic_stringIcSt11char_traitsIcESaIcEE11_M_is_localEv.exit.thread.i.i, label %_ZNKSt7__cxx1112basic_stringIcSt11char_traitsIcESaIcEE11_M_is_localEv.exit.i.i

_ZNKSt7__cxx1112basic_stringIcSt11char_traitsIcESaIcEE11_M_is_localEv.exit.thread.i.i: ; preds = %_ZN7rocksdb11InternalKey10DecodeFromERKNS_5SliceE.exit
  %20 = load i64, ptr %8, align 8, !tbaa !16
  %21 = icmp ult i64 %20, 16
  call void @llvm.assume(i1 %21)
  br label %_ZNSt7__cxx1112basic_stringIcSt11char_traitsIcESaIcEED2Ev.exit

_ZNKSt7__cxx1112basic_stringIcSt11char_traitsIcESaIcEE11_M_is_localEv.exit.i.i: ; preds = %_ZN7rocksdb11InternalKey10DecodeFromERKNS_5SliceE.exit
  %22 = load i64, ptr %18, align 8, !tbaa !17
  %23 = add i64 %22, 1
  call void @_ZdlPvm(ptr noundef %17, i64 noundef %23) #33
  br label %_ZNSt7__cxx1112basic_stringIcSt11char_traitsIcESaIcEED2Ev.exit

_ZNSt7__cxx1112basic_stringIcSt11char_traitsIcESaIcEED2Ev.exit: ; preds = %_ZNKSt7__cxx1112basic_stringIcSt11char_traitsIcESaIcEE11_M_is_localEv.exit.thread.i.i, %_ZNKSt7__cxx1112basic_stringIcSt11char_traitsIcESaIcEE11_M_is_localEv.exit.i.i
  call void @llvm.lifetime.end.p0(i64 32, ptr nonnull %2) #34
  ret void

24:                                               ; preds = %1
  %25 = landingpad { ptr, i32 }
          cleanup
  %26 = load ptr, ptr %2, align 8, !tbaa !11
  %27 = getelementptr inbounds nuw i8, ptr %2, i64 16
  %28 = icmp eq ptr %26, %27
  br i1 %28, label %_ZNKSt7__cxx1112basic_stringIcSt11char_traitsIcESaIcEE11_M_is_localEv.exit.thread.i.i4, label %_ZNKSt7__cxx1112basic_stringIcSt11char_traitsIcESaIcEE11_M_is_localEv.exit.i.i3

_ZNKSt7__cxx1112basic_stringIcSt11char_traitsIcESaIcEE11_M_is_localEv.exit.thread.i.i4: ; preds = %24
  %29 = load i64, ptr %8, align 8, !tbaa !16
  %30 = icmp ult i64 %29, 16
  call void @llvm.assume(i1 %30)
  br label %_ZNSt7__cxx1112basic_stringIcSt11char_traitsIcESaIcEED2Ev.exit5

_ZNKSt7__cxx1112basic_stringIcSt11char_traitsIcESaIcEE11_M_is_localEv.exit.i.i3: ; preds = %24
  %31 = load i64, ptr %27, align 8, !tbaa !17
  %32 = add i64 %31, 1
  call void @_ZdlPvm(ptr noundef %26, i64 noundef %32) #33
  br label %_ZNSt7__cxx1112basic_stringIcSt11char_traitsIcESaIcEED2Ev.exit5

_ZNSt7__cxx1112basic_stringIcSt11char_traitsIcESaIcEED2Ev.exit5: ; preds = %_ZNKSt7__cxx1112basic_stringIcSt11char_traitsIcESaIcEE11_M_is_localEv.exit.thread.i.i4, %_ZNKSt7__cxx1112basic_stringIcSt11char_traitsIcESaIcEE11_M_is_localEv.exit.i.i3
  call void @llvm.lifetime.end.p0(i64 32, ptr nonnull %2) #34
  resume { ptr, i32 } %25
}